; Function Attrs: nounwind sspstrong uwtable
define internal i64 @ossl_bn_mod_inverse(i64 noundef %0, i64 noundef %1) #0 {
  %3 = alloca i64, align 8
  store i64 %1, ptr %3, align 8, !tbaa !6
  %4 = call ptr @ossl_bn_value_ptr(ptr noundef nonnull %3)
  %5 = call ptr @rb_check_typeddata(i64 noundef %0, ptr noundef nonnull @ossl_bn_type) #11
  %.not = icmp eq ptr %5, null
  br i1 %.not, label %6, label %8

6:                                                ; preds = %2
  %7 = load i64, ptr @rb_eRuntimeError, align 8, !tbaa !6
  call void (i64, ptr, ...) @ossl_raise(i64 noundef %7, ptr noundef nonnull @.str) #12
  unreachable

8:                                                ; preds = %2
  %9 = call i64 @rb_obj_class(i64 noundef %0) #11
  %10 = call i64 @rb_data_typed_object_wrap(i64 noundef %9, ptr noundef null, ptr noundef nonnull @ossl_bn_type) #11
  %11 = load ptr, ptr @ossl_bn_ctx_key, align 8, !tbaa !16
  %12 = call ptr @rb_ractor_local_storage_ptr(ptr noundef %11) #11
  %.not.i = icmp eq ptr %12, null
  br i1 %.not.i, label %13, label %ossl_bn_ctx_get.exit

13:                                               ; preds = %8
  %14 = call ptr @BN_CTX_new() #11
  %.not5.i = icmp eq ptr %14, null
  br i1 %.not5.i, label %15, label %17

15:                                               ; preds = %13
  %16 = load i64, ptr @rb_eRuntimeError, align 8, !tbaa !6
  call void (i64, ptr, ...) @ossl_raise(i64 noundef %16, ptr noundef nonnull @.str.2) #12
  unreachable

17:                                               ; preds = %13
  %18 = load ptr, ptr @ossl_bn_ctx_key, align 8, !tbaa !16
  call void @rb_ractor_local_storage_ptr_set(ptr noundef %18, ptr noundef nonnull %14) #11
  br label %ossl_bn_ctx_get.exit

ossl_bn_ctx_get.exit:                             ; preds = %8, %17
  %.0.i = phi ptr [ %12, %8 ], [ %14, %17 ]
  %19 = call ptr @BN_mod_inverse(ptr noundef null, ptr noundef nonnull %5, ptr noundef nonnull %4, ptr noundef nonnull %.0.i) #11
  %.not9 = icmp eq ptr %19, null
  br i1 %.not9, label %20, label %22

20:                                               ; preds = %ossl_bn_ctx_get.exit
  %21 = load i64, ptr @eBNError, align 8, !tbaa !6
  call void (i64, ptr, ...) @ossl_raise(i64 noundef %21, ptr noundef null) #12
  unreachable

22:                                               ; preds = %ossl_bn_ctx_get.exit
  %23 = inttoptr i64 %10 to ptr
  %24 = getelementptr inbounds nuw i8, ptr %23, i64 32
  store ptr %19, ptr %24, align 8, !tbaa !10
  ret i64 %10
}